target datalayout = "e-m:e-p270:32:32-p271:32:32-p272:64:64-i64:64-i128:128-f80:128-n8:16:32:64-S128"
target triple = "x86_64-pc-linux-gnu"

%struct.pointf_s = type { double, double }

@.str.86 = private unnamed_addr constant [5 x i8] c"\22/>\0A\00", align 1
@.str.118 = private unnamed_addr constant [10 x i8] c" points=\22\00", align 1
@.str.123 = private unnamed_addr constant [10 x i8] c"<polyline\00", align 1

; Function Attrs: nounwind uwtable
define internal void @svg_polyline(ptr noundef %0, ptr noundef %1, i64 noundef %2) #0 {
  %4 = alloca ptr, align 8
  %5 = alloca ptr, align 8
  %6 = alloca i64, align 8
  %7 = alloca i64, align 8
  store ptr %0, ptr %4, align 8, !tbaa !3
  store ptr %1, ptr %5, align 8, !tbaa !114
  store i64 %2, ptr %6, align 8, !tbaa !115
  %8 = load ptr, ptr %4, align 8, !tbaa !3
  %9 = call i32 @gvputs(ptr noundef %8, ptr noundef @.str.123)
  %10 = load ptr, ptr %4, align 8, !tbaa !3
  call void @svg_grstyle(ptr noundef %10, i32 noundef 0, i32 noundef 0)
  %11 = load ptr, ptr %4, align 8, !tbaa !3
  %12 = call i32 @gvputs(ptr noundef %11, ptr noundef @.str.118)
  call void @llvm.lifetime.start.p0(i64 8, ptr %7) #9
  store i64 0, ptr %7, align 8, !tbaa !115
  br label %13

13:                                               ; preds = %42, %3
  %14 = load i64, ptr %7, align 8, !tbaa !115
  %15 = load i64, ptr %6, align 8, !tbaa !115
  %16 = icmp ult i64 %14, %15
  br i1 %16, label %18, label %17

17:                                               ; preds = %13
  call void @llvm.lifetime.end.p0(i64 8, ptr %7) #9
  br label %45

18:                                               ; preds = %13
  %19 = load ptr, ptr %4, align 8, !tbaa !3
  %20 = load ptr, ptr %5, align 8, !tbaa !114
  %21 = load i64, ptr %7, align 8, !tbaa !115
  %22 = getelementptr inbounds nuw %struct.pointf_s, ptr %20, i64 %21
  %23 = getelementptr inbounds nuw %struct.pointf_s, ptr %22, i32 0, i32 0
  %24 = load double, ptr %23, align 8, !tbaa !77
  call void @gvprintdouble(ptr noundef %19, double noundef %24)
  %25 = load ptr, ptr %4, align 8, !tbaa !3
  %26 = call i32 @gvputc(ptr noundef %25, i32 noundef 44)
  %27 = load ptr, ptr %4, align 8, !tbaa !3
  %28 = load ptr, ptr %5, align 8, !tbaa !114
  %29 = load i64, ptr %7, align 8, !tbaa !115
  %30 = getelementptr inbounds nuw %struct.pointf_s, ptr %28, i64 %29
  %31 = getelementptr inbounds nuw %struct.pointf_s, ptr %30, i32 0, i32 1
  %32 = load double, ptr %31, align 8, !tbaa !76
  %33 = fneg double %32
  call void @gvprintdouble(ptr noundef %27, double noundef %33)
  %34 = load i64, ptr %7, align 8, !tbaa !115
  %35 = add i64 %34, 1
  %36 = load i64, ptr %6, align 8, !tbaa !115
  %37 = icmp ne i64 %35, %36
  br i1 %37, label %38, label %41

38:                                               ; preds = %18
  %39 = load ptr, ptr %4, align 8, !tbaa !3
  %40 = call i32 @gvputc(ptr noundef %39, i32 noundef 32)
  br label %41

41:                                               ; preds = %38, %18
  br label %42

42:                                               ; preds = %41
  %43 = load i64, ptr %7, align 8, !tbaa !115
  %44 = add i64 %43, 1
  store i64 %44, ptr %7, align 8, !tbaa !115
  br label %13, !llvm.loop !118

45:                                               ; preds = %17
  %46 = load ptr, ptr %4, align 8, !tbaa !3
  %47 = call i32 @gvputs(ptr noundef %46, ptr noundef @.str.86)
  ret void
}