; Function Attrs: nounwind uwtable
define internal void @svg_polyline(ptr noundef %0, ptr noundef readonly captures(none) %1, i64 noundef %2) #0 {
  %4 = tail call i32 @gvputs(ptr noundef %0, ptr noundef nonnull @.str.123) #11
  tail call fastcc void @svg_grstyle(ptr noundef %0, i32 noundef 0, i32 noundef 0)
  %5 = tail call i32 @gvputs(ptr noundef %0, ptr noundef nonnull @.str.118) #11
  %.not18 = icmp eq i64 %2, 0
  br i1 %.not18, label %._crit_edge, label %.lr.ph

._crit_edge:                                      ; preds = %16, %3
  %6 = tail call i32 @gvputs(ptr noundef %0, ptr noundef nonnull @.str.86) #11
  ret void

.lr.ph:                                           ; preds = %3, %16
  %.017 = phi i64 [ %13, %16 ], [ 0, %3 ]
  %7 = getelementptr inbounds nuw %struct.pointf_s, ptr %1, i64 %.017
  %8 = load double, ptr %7, align 8, !tbaa !102
  tail call void @gvprintdouble(ptr noundef %0, double noundef %8) #11
  %9 = tail call i32 @gvputc(ptr noundef %0, i32 noundef 44) #11
  %10 = getelementptr inbounds nuw i8, ptr %7, i64 8
  %11 = load double, ptr %10, align 8, !tbaa !103
  %12 = fneg double %11
  tail call void @gvprintdouble(ptr noundef %0, double noundef %12) #11
  %13 = add nuw i64 %.017, 1
  %.not = icmp eq i64 %13, %2
  br i1 %.not, label %16, label %14

14:                                               ; preds = %.lr.ph
  %15 = tail call i32 @gvputc(ptr noundef %0, i32 noundef 32) #11
  br label %16

16:                                               ; preds = %.lr.ph, %14
  %exitcond.not = icmp eq i64 %13, %2
  br i1 %exitcond.not, label %._crit_edge, label %.lr.ph, !llvm.loop !107
}